Certificate:
    Data:
        Version: 3 (0x2)
        Serial Number: 9251938829580462927 (0x80657d58bcc96b4f)
    Signature Algorithm: sha256WithRSAEncryption
        Issuer: O=certstore, OU=ca, CN=ca
        Validity
            Not Before: Nov 27 19:11:51 2017 GMT
            Not After : Nov 25 19:11:51 2027 GMT
        Subject: O=certstore, OU=leaf, CN=ec
        Subject Public Key Info:
            Public Key Algorithm: id-ecPublicKey
                Public-Key: (256 bit)
                pub: 
                    04:51:74:61:7a:a0:39:b6:1e:08:08:28:ef:a9:8d:
                    7c:3d:96:b8:8a:fa:bc:c5:38:a2:5e:b6:3f:a6:a7:
                    87:29:83:e0:b7:be:fb:dd:df:00:8f:b9:f5:7f:67:
                    5c:fe:a3:f3:8d:4f:57:c6:7e:9f:40:7f:5d:9a:a9:
                    b2:41:79:7b:06
                ASN1 OID: prime256v1
                NIST CURVE: P-256
        X509v3 extensions:
            X509v3 Basic Constraints: 
                CA:FALSE
            Netscape Comment: 
                OpenSSL Generated Certificate
            X509v3 Subject Key Identifier: 
                47:03:9C:4A:C9:F1:74:EA:0B:47:A6:0E:1A:1C:72:1D:59:AC:E5:F0
            X509v3 Authority Key Identifier: 
                keyid:A3:B9:05:AB:07:4F:05:EC:AE:FB:B2:CE:4E:C7:02:D4:E1:B6:C0:B6
                DirName:/O=certstore/OU=ca/CN=ca
                serial:D2:7E:10:FB:E6:74:56:A9

    Signature Algorithm: sha256WithRSAEncryption
         70:f1:96:e1:c6:44:73:34:ac:1a:ce:3f:60:90:6e:f9:b4:95:
         fd:34:b2:5f:97:9c:57:19:e3:e6:2e:c1:c3:99:1f:70:7a:c9:
         fc:4f:9e:10:f4:a1:df:0c:90:73:42:55:ae:f6:84:69:b1:4c:
         32:d8:c6:f2:8d:e8:16:af:75:30:5e:45:45:42:eb:6f:1a:72:
         34:17:25:a3:c2:f5:b1:46:2e:ba:61:bc:99:4e:5f:0a:24:44:
         87:1d:21:94:af:c1:b2:2c:fa:3a:f5:4b:2f:fe:b7:fe:22:c1:
         86:76:ba:3f:4d:dc:39:a9:4e:09:2d:a2:41:f3:3a:a5:f2:ca:
         b8:33:95:8f:d3:eb:eb:b1:4e:34:77:58:a8:9b:1b:e6:ea:94:
         f6:17:84:3c:2a:5f:a6:16:39:b0:dc:aa:ee:2b:9f:b3:e6:2c:
         25:21:22:95:5c:1f:b1:a3:71:46:d2:88:48:8c:fa:b0:47:bd:
         0c:26:bc:62:cc:6f:e0:3e:d7:00:28:d1:be:d1:71:04:a4:83:
         93:ed:e2:ab:2a:8a:fd:68:d9:51:41:75:bc:78:6b:8c:d0:56:
         81:ec:fc:67:ce:88:5f:fa:37:0c:1e:c3:70:b1:60:ff:e0:b3:
         34:72:5e:6f:c3:c6:00:26:59:c9:95:f3:98:3e:cd:a5:11:27:
         8f:53:ca:fc
-----BEGIN CERTIFICATE-----
MIIC0jCCAbqgAwIBAgIJAIBlfVi8yWtPMA0GCSqGSIb3DQEBCwUAMC4xEjAQBgNV
BAoTCWNlcnRzdG9yZTELMAkGA1UECxMCY2ExCzAJBgNVBAMTAmNhMB4XDTE3MTEy
NzE5MTE1MVoXDTI3MTEyNTE5MTE1MVowMDESMBAGA1UEChMJY2VydHN0b3JlMQ0w
CwYDVQQLEwRsZWFmMQswCQYDVQQDEwJlYzBZMBMGByqGSM49AgEGCCqGSM49AwEH
A0IABFF0YXqgObYeCAgo76mNfD2WuIr6vMU4ol62P6anhymD4Le++93fAI+59X9n
XP6j841PV8Z+n0B/XZqpskF5ewajgbswgbgwCQYDVR0TBAIwADAsBglghkgBhvhC
AQ0EHxYdT3BlblNTTCBHZW5lcmF0ZWQgQ2VydGlmaWNhdGUwHQYDVR0OBBYEFEcD
nErJ8XTqC0emDhocch1ZrOXwMF4GA1UdIwRXMFWAFKO5BasHTwXsrvuyzk7HAtTh
tsC2oTKkMDAuMRIwEAYDVQQKEwljZXJ0c3RvcmUxCzAJBgNVBAsTAmNhMQswCQYD
VQQDEwJjYYIJANJ+EPvmdFapMA0GCSqGSIb3DQEBCwUAA4IBAQBw8ZbhxkRzNKwa
zj9gkG75tJX9NLJfl5xXGePmLsHDmR9wesn8T54Q9KHfDJBzQlWu9oRpsUwy2Mby
jegWr3UwXkVFQutvGnI0FyWjwvWxRi66YbyZTl8KJESHHSGUr8GyLPo69Usv/rf+
IsGGdro/Tdw5qU4JLaJB8zql8sq4M5WP0+vrsU40d1iomxvm6pT2F4Q8Kl+mFjmw
3KruK5+z5iwlISKVXB+xo3FG0ohIjPqwR70MJrxizG/gPtcAKNG+0XEEpIOT7eKr
Kor9aNlRQXW8eGuM0FaB7Pxnzohf+jcMHsNwsWD/4LM0cl5vw8YAJlnJlfOYPs2l
ESePU8r8
-----END CERTIFICATE-----
